target datalayout = "e-m:e-p270:32:32-p271:32:32-p272:64:64-i64:64-i128:128-f80:128-n8:16:32:64-S128"
target triple = "x86_64-pc-linux-gnu"

%struct.preference = type { ptr, ptr, ptr, i32, i32, i32, %union.anon, %union.anon.0, %union.anon.1, %union.anon.2, %struct.pref_custom_cbs, ptr, ptr }
%union.anon = type { ptr }
%union.anon.0 = type { ptr }
%union.anon.1 = type { ptr }
%union.anon.2 = type { %struct.anon }
%struct.anon = type { ptr, i8 }
%struct.pref_custom_cbs = type { ptr, ptr, ptr, ptr, ptr, ptr, ptr }
%struct.pref_module = type { ptr, ptr, ptr, ptr, ptr, ptr, ptr, ptr, i32, i32, i8, i8, i32 }
%struct.find_pref_arg_t = type { ptr, ptr, ptr }
%struct._GList = type { ptr, ptr, ptr }

@prefs_modules = internal global ptr null, align 8
@.str = private unnamed_addr constant [5 x i8] c"Epan\00", align 1
@.str.1 = private unnamed_addr constant [13 x i8] c"epan/prefs.c\00", align 1
@.str.8 = private unnamed_addr constant [31 x i8] c"assertion \22not reached\22 failed\00", align 1
@__func__.prefs_get_range_value_real = private unnamed_addr constant [27 x i8] c"prefs_get_range_value_real\00", align 1

; Function Attrs: null_pointer_is_valid sspstrong uwtable
define internal ptr @prefs_find_preference_with_submodule(ptr noundef %0, ptr noundef %1, ptr noundef %2) #1 {
  %4 = alloca ptr, align 8
  %5 = alloca ptr, align 8
  %6 = alloca ptr, align 8
  %7 = alloca ptr, align 8
  %8 = alloca %struct.find_pref_arg_t, align 8
  %9 = alloca ptr, align 8
  %10 = alloca i32, align 4
  store ptr %0, ptr %5, align 8
  store ptr %1, ptr %6, align 8
  store ptr %2, ptr %7, align 8
  call void @llvm.lifetime.start.p0(i64 24, ptr %8) #17
  call void @llvm.lifetime.start.p0(i64 8, ptr %9) #17
  %11 = load ptr, ptr %5, align 8
  %12 = icmp eq ptr %11, null
  br i1 %12, label %13, label %14

13:                                               ; preds = %3
  store ptr null, ptr %4, align 8
  store i32 1, ptr %10, align 4
  br label %62

14:                                               ; preds = %3
  %15 = load ptr, ptr %5, align 8
  %16 = getelementptr inbounds nuw %struct.pref_module, ptr %15, i32 0, i32 5
  %17 = load ptr, ptr %16, align 8
  %18 = load ptr, ptr %6, align 8
  %19 = call ptr @g_list_find_custom(ptr noundef %17, ptr noundef %18, ptr noundef @preference_match)
  store ptr %19, ptr %9, align 8
  %20 = getelementptr inbounds nuw %struct.find_pref_arg_t, ptr %8, i32 0, i32 2
  store ptr null, ptr %20, align 8
  %21 = load ptr, ptr %9, align 8
  %22 = icmp eq ptr %21, null
  br i1 %22, label %23, label %39

23:                                               ; preds = %14
  %24 = getelementptr inbounds nuw %struct.find_pref_arg_t, ptr %8, i32 0, i32 0
  store ptr null, ptr %24, align 8
  %25 = load ptr, ptr %5, align 8
  %26 = getelementptr inbounds nuw %struct.pref_module, ptr %25, i32 0, i32 7
  %27 = load ptr, ptr %26, align 8
  %28 = icmp ne ptr %27, null
  br i1 %28, label %29, label %36

29:                                               ; preds = %23
  %30 = load ptr, ptr %6, align 8
  %31 = getelementptr inbounds nuw %struct.find_pref_arg_t, ptr %8, i32 0, i32 1
  store ptr %30, ptr %31, align 8
  %32 = load ptr, ptr %5, align 8
  %33 = getelementptr inbounds nuw %struct.pref_module, ptr %32, i32 0, i32 7
  %34 = load ptr, ptr %33, align 8
  %35 = call zeroext i1 @wmem_tree_foreach(ptr noundef %34, ptr noundef @module_find_pref_cb, ptr noundef %8)
  br label %36

36:                                               ; preds = %29, %23
  %37 = getelementptr inbounds nuw %struct.find_pref_arg_t, ptr %8, i32 0, i32 0
  %38 = load ptr, ptr %37, align 8
  store ptr %38, ptr %9, align 8
  br label %39

39:                                               ; preds = %36, %14
  %40 = load ptr, ptr %9, align 8
  %41 = icmp eq ptr %40, null
  br i1 %41, label %42, label %43

42:                                               ; preds = %39
  store ptr null, ptr %4, align 8
  store i32 1, ptr %10, align 4
  br label %62

43:                                               ; preds = %39
  %44 = load ptr, ptr %7, align 8
  %45 = icmp ne ptr %44, null
  br i1 %45, label %46, label %58

46:                                               ; preds = %43
  %47 = getelementptr inbounds nuw %struct.find_pref_arg_t, ptr %8, i32 0, i32 2
  %48 = load ptr, ptr %47, align 8
  %49 = icmp ne ptr %48, null
  br i1 %49, label %50, label %53

50:                                               ; preds = %46
  %51 = getelementptr inbounds nuw %struct.find_pref_arg_t, ptr %8, i32 0, i32 2
  %52 = load ptr, ptr %51, align 8
  br label %55

53:                                               ; preds = %46
  %54 = load ptr, ptr %5, align 8
  br label %55

55:                                               ; preds = %53, %50
  %56 = phi ptr [ %52, %50 ], [ %54, %53 ]
  %57 = load ptr, ptr %7, align 8
  store ptr %56, ptr %57, align 8
  br label %58

58:                                               ; preds = %55, %43
  %59 = load ptr, ptr %9, align 8
  %60 = getelementptr inbounds nuw %struct._GList, ptr %59, i32 0, i32 0
  %61 = load ptr, ptr %60, align 8
  store ptr %61, ptr %4, align 8
  store i32 1, ptr %10, align 4
  br label %62

62:                                               ; preds = %58, %42, %13
  call void @llvm.lifetime.end.p0(i64 8, ptr %9) #17
  call void @llvm.lifetime.end.p0(i64 24, ptr %8) #17
  %63 = load ptr, ptr %4, align 8
  ret ptr %63
}

; Function Attrs: null_pointer_is_valid sspstrong uwtable
define ptr @prefs_get_range_value_real(ptr noundef %0, i32 noundef %1) #1 {
  %3 = alloca ptr, align 8
  %4 = alloca ptr, align 8
  %5 = alloca i32, align 4
  store ptr %0, ptr %4, align 8
  store i32 %1, ptr %5, align 4
  %6 = load i32, ptr %5, align 4
  switch i32 %6, label %20 [
    i32 0, label %7
    i32 1, label %11
    i32 2, label %15
  ]

7:                                                ; preds = %2
  %8 = load ptr, ptr %4, align 8
  %9 = getelementptr inbounds nuw %struct.preference, ptr %8, i32 0, i32 8
  %10 = load ptr, ptr %9, align 8
  store ptr %10, ptr %3, align 8
  br label %21

11:                                               ; preds = %2
  %12 = load ptr, ptr %4, align 8
  %13 = getelementptr inbounds nuw %struct.preference, ptr %12, i32 0, i32 7
  %14 = load ptr, ptr %13, align 8
  store ptr %14, ptr %3, align 8
  br label %21

15:                                               ; preds = %2
  %16 = load ptr, ptr %4, align 8
  %17 = getelementptr inbounds nuw %struct.preference, ptr %16, i32 0, i32 6
  %18 = load ptr, ptr %17, align 8
  %19 = load ptr, ptr %18, align 8
  store ptr %19, ptr %3, align 8
  br label %21

20:                                               ; preds = %2
  call void (ptr, i32, ptr, i64, ptr, ptr, ...) @ws_log_fatal_full(ptr noundef @.str, i32 noundef 7, ptr noundef @.str.1, i64 noundef 1773, ptr noundef @__func__.prefs_get_range_value_real, ptr noundef @.str.8) #18
  unreachable

21:                                               ; preds = %15, %11, %7
  %22 = load ptr, ptr %3, align 8
  ret ptr %22
}

; Function Attrs: null_pointer_is_valid sspstrong uwtable
define ptr @prefs_find_preference(ptr noundef %0, ptr noundef %1) #1 {
  %3 = alloca ptr, align 8
  %4 = alloca ptr, align 8
  store ptr %0, ptr %3, align 8
  store ptr %1, ptr %4, align 8
  %5 = load ptr, ptr %3, align 8
  %6 = load ptr, ptr %4, align 8
  %7 = call ptr @prefs_find_preference_with_submodule(ptr noundef %5, ptr noundef %6, ptr noundef null)
  ret ptr %7
}

; Function Attrs: null_pointer_is_valid sspstrong uwtable
define ptr @prefs_find_module(ptr noundef %0) #1 {
  %2 = alloca ptr, align 8
  store ptr %0, ptr %2, align 8
  %3 = load ptr, ptr @prefs_modules, align 8
  %4 = load ptr, ptr %2, align 8
  %5 = call ptr @wmem_tree_lookup_string(ptr noundef %3, ptr noundef %4, i32 noundef 1)
  ret ptr %5
}

; Function Attrs: null_pointer_is_valid sspstrong uwtable
define ptr @prefs_get_range_value(ptr noundef %0, ptr noundef %1) #1 {
  %3 = alloca ptr, align 8
  %4 = alloca ptr, align 8
  %5 = alloca ptr, align 8
  %6 = alloca ptr, align 8
  %7 = alloca i32, align 4
  store ptr %0, ptr %4, align 8
  store ptr %1, ptr %5, align 8
  call void @llvm.lifetime.start.p0(i64 8, ptr %6) #17
  %8 = load ptr, ptr %4, align 8
  %9 = call ptr @prefs_find_module(ptr noundef %8)
  %10 = load ptr, ptr %5, align 8
  %11 = call ptr @prefs_find_preference(ptr noundef %9, ptr noundef %10)
  store ptr %11, ptr %6, align 8
  %12 = load ptr, ptr %6, align 8
  %13 = icmp eq ptr %12, null
  br i1 %13, label %14, label %15

14:                                               ; preds = %2
  store ptr null, ptr %3, align 8
  store i32 1, ptr %7, align 4
  br label %18

15:                                               ; preds = %2
  %16 = load ptr, ptr %6, align 8
  %17 = call ptr @prefs_get_range_value_real(ptr noundef %16, i32 noundef 2)
  store ptr %17, ptr %3, align 8
  store i32 1, ptr %7, align 4
  br label %18

18:                                               ; preds = %15, %14
  call void @llvm.lifetime.end.p0(i64 8, ptr %6) #17
  %19 = load ptr, ptr %3, align 8
  ret ptr %19
}