; Function Attrs: null_pointer_is_valid sspstrong uwtable
define ptr @prefs_get_range_value(ptr noundef %0, ptr noundef %1) local_unnamed_addr #1 {
  %3 = alloca %struct.find_pref_arg_t, align 8
  %4 = load ptr, ptr @prefs_modules, align 8
  %5 = tail call ptr @wmem_tree_lookup_string(ptr noundef %4, ptr noundef %0, i32 noundef 1)
  call void @llvm.lifetime.start.p0(i64 24, ptr nonnull %3) #25
  %6 = icmp eq ptr %5, null
  br i1 %6, label %prefs_find_preference.exit.thread, label %7

7:                                                ; preds = %2
  %8 = getelementptr inbounds nuw i8, ptr %5, i64 40
  %9 = load ptr, ptr %8, align 8
  %10 = tail call ptr @g_list_find_custom(ptr noundef %9, ptr noundef %1, ptr noundef nonnull @preference_match)
  %11 = getelementptr inbounds nuw i8, ptr %3, i64 16
  store ptr null, ptr %11, align 8
  %12 = icmp eq ptr %10, null
  br i1 %12, label %13, label %prefs_find_preference.exit

13:                                               ; preds = %7
  store ptr null, ptr %3, align 8
  %14 = getelementptr inbounds nuw i8, ptr %5, i64 56
  %15 = load ptr, ptr %14, align 8
  %.not.i.i = icmp eq ptr %15, null
  br i1 %.not.i.i, label %prefs_find_preference.exit.thread, label %16

16:                                               ; preds = %13
  %17 = getelementptr inbounds nuw i8, ptr %3, i64 8
  store ptr %1, ptr %17, align 8
  %18 = call zeroext i1 @wmem_tree_foreach(ptr noundef nonnull %15, ptr noundef nonnull @module_find_pref_cb, ptr noundef nonnull %3)
  %.pr.i.i = load ptr, ptr %3, align 8
  %19 = icmp eq ptr %.pr.i.i, null
  br i1 %19, label %prefs_find_preference.exit.thread, label %prefs_find_preference.exit

prefs_find_preference.exit.thread:                ; preds = %2, %16, %13
  call void @llvm.lifetime.end.p0(i64 24, ptr nonnull %3) #25
  br label %25

prefs_find_preference.exit:                       ; preds = %7, %16
  %.020.i.i = phi ptr [ %.pr.i.i, %16 ], [ %10, %7 ]
  %20 = load ptr, ptr %.020.i.i, align 8
  call void @llvm.lifetime.end.p0(i64 24, ptr nonnull %3) #25
  %21 = icmp eq ptr %20, null
  br i1 %21, label %25, label %22

22:                                               ; preds = %prefs_find_preference.exit
  %23 = getelementptr inbounds nuw i8, ptr %20, i64 40
  %24 = load ptr, ptr %23, align 8
  %.0.i = load ptr, ptr %24, align 8
  br label %25

25:                                               ; preds = %prefs_find_preference.exit.thread, %prefs_find_preference.exit, %22
  %.0 = phi ptr [ %.0.i, %22 ], [ null, %prefs_find_preference.exit ], [ null, %prefs_find_preference.exit.thread ]
  ret ptr %.0
}